; ModuleID = '15/527.c'
source_filename = "15/527.c"
target datalayout = "e-m:e-p270:32:32-p271:32:32-p272:64:64-i64:64-f80:128-n8:16:32:64-S128"
target triple = "x86_64-pc-linux-gnu"

@.str = private unnamed_addr constant [3 x i8] c"%d\00", align 1
@.str.1 = private unnamed_addr constant [4 x i8] c"%d\0A\00", align 1

; Function Attrs: noinline nounwind uwtable
define dso_local i32 @main(i32 %0, i8** %1) #0 {
  %3 = alloca i32, align 4
  %4 = alloca i32, align 4
  %5 = alloca i8**, align 8
  %6 = alloca [1000 x [1000 x i32]], align 16
  %7 = alloca i32, align 4
  %8 = alloca i32, align 4
  %9 = alloca i32, align 4
  %10 = alloca i32, align 4
  %11 = alloca i32, align 4
  %12 = alloca i32, align 4
  %13 = alloca i32, align 4
  %14 = alloca i32, align 4
  %15 = alloca i32, align 4
  %16 = alloca i32, align 4
  store i32 0, i32* %3, align 4
  store i32 %0, i32* %4, align 4
  store i8** %1, i8*** %5, align 8
  %17 = call i32 (i8*, ...) @__isoc99_scanf(i8* getelementptr inbounds ([3 x i8], [3 x i8]* @.str, i64 0, i64 0), i32* %7)
  store i32 0, i32* %8, align 4
  br label %18

18:                                               ; preds = %39, %2
  %19 = load i32, i32* %8, align 4
  %20 = load i32, i32* %7, align 4
  %21 = icmp slt i32 %19, %20
  br i1 %21, label %22, label %42

22:                                               ; preds = %18
  store i32 0, i32* %9, align 4
  br label %23

23:                                               ; preds = %35, %22
  %24 = load i32, i32* %9, align 4
  %25 = load i32, i32* %7, align 4
  %26 = icmp slt i32 %24, %25
  br i1 %26, label %27, label %38

27:                                               ; preds = %23
  %28 = load i32, i32* %8, align 4
  %29 = sext i32 %28 to i64
  %30 = getelementptr inbounds [1000 x [1000 x i32]], [1000 x [1000 x i32]]* %6, i64 0, i64 %29
  %31 = load i32, i32* %9, align 4
  %32 = sext i32 %31 to i64
  %33 = getelementptr inbounds [1000 x i32], [1000 x i32]* %30, i64 0, i64 %32
  %34 = call i32 (i8*, ...) @__isoc99_scanf(i8* getelementptr inbounds ([3 x i8], [3 x i8]* @.str, i64 0, i64 0), i32* %33)
  br label %35

35:                                               ; preds = %27
  %36 = load i32, i32* %9, align 4
  %37 = add nsw i32 %36, 1
  store i32 %37, i32* %9, align 4
  br label %23

38:                                               ; preds = %23
  br label %39

39:                                               ; preds = %38
  %40 = load i32, i32* %8, align 4
  %41 = add nsw i32 %40, 1
  store i32 %41, i32* %8, align 4
  br label %18

42:                                               ; preds = %18
  store i32 0, i32* %8, align 4
  br label %43

43:                                               ; preds = %78, %42
  %44 = load i32, i32* %8, align 4
  %45 = load i32, i32* %7, align 4
  %46 = icmp slt i32 %44, %45
  br i1 %46, label %47, label %81

47:                                               ; preds = %43
  store i32 0, i32* %9, align 4
  br label %48

48:                                               ; preds = %74, %47
  %49 = load i32, i32* %9, align 4
  %50 = load i32, i32* %7, align 4
  %51 = icmp slt i32 %49, %50
  br i1 %51, label %52, label %77

52:                                               ; preds = %48
  %53 = load i32, i32* %8, align 4
  %54 = sext i32 %53 to i64
  %55 = getelementptr inbounds [1000 x [1000 x i32]], [1000 x [1000 x i32]]* %6, i64 0, i64 %54
  %56 = load i32, i32* %9, align 4
  %57 = sext i32 %56 to i64
  %58 = getelementptr inbounds [1000 x i32], [1000 x i32]* %55, i64 0, i64 %57
  %59 = load i32, i32* %58, align 4
  %60 = icmp eq i32 %59, 0
  br i1 %60, label %61, label %73

61:                                               ; preds = %52
  %62 = load i32, i32* %8, align 4
  %63 = sext i32 %62 to i64
  %64 = getelementptr inbounds [1000 x [1000 x i32]], [1000 x [1000 x i32]]* %6, i64 0, i64 %63
  %65 = load i32, i32* %9, align 4
  %66 = sext i32 %65 to i64
  %67 = getelementptr inbounds [1000 x i32], [1000 x i32]* %64, i64 0, i64 %66
  %68 = load i32, i32* %67, align 4
  store i32 %68, i32* %10, align 4
  %69 = load i32, i32* %8, align 4
  store i32 %69, i32* %12, align 4
  %70 = load i32, i32* %9, align 4
  store i32 %70, i32* %13, align 4
  %71 = load i32, i32* %7, align 4
  %72 = add nsw i32 %71, 1
  store i32 %72, i32* %8, align 4
  br label %77

73:                                               ; preds = %52
  br label %74

74:                                               ; preds = %73
  %75 = load i32, i32* %9, align 4
  %76 = add nsw i32 %75, 1
  store i32 %76, i32* %9, align 4
  br label %48

77:                                               ; preds = %61, %48
  br label %78

78:                                               ; preds = %77
  %79 = load i32, i32* %8, align 4
  %80 = add nsw i32 %79, 1
  store i32 %80, i32* %8, align 4
  br label %43

81:                                               ; preds = %43
  %82 = load i32, i32* %7, align 4
  %83 = sub nsw i32 %82, 1
  store i32 %83, i32* %8, align 4
  br label %84

84:                                               ; preds = %117, %81
  %85 = load i32, i32* %8, align 4
  %86 = icmp sge i32 %85, 0
  br i1 %86, label %87, label %120

87:                                               ; preds = %84
  %88 = load i32, i32* %7, align 4
  %89 = sub nsw i32 %88, 1
  store i32 %89, i32* %9, align 4
  br label %90

90:                                               ; preds = %113, %87
  %91 = load i32, i32* %9, align 4
  %92 = icmp sge i32 %91, 0
  br i1 %92, label %93, label %116

93:                                               ; preds = %90
  %94 = load i32, i32* %8, align 4
  %95 = sext i32 %94 to i64
  %96 = getelementptr inbounds [1000 x [1000 x i32]], [1000 x [1000 x i32]]* %6, i64 0, i64 %95
  %97 = load i32, i32* %9, align 4
  %98 = sext i32 %97 to i64
  %99 = getelementptr inbounds [1000 x i32], [1000 x i32]* %96, i64 0, i64 %98
  %100 = load i32, i32* %99, align 4
  %101 = icmp eq i32 %100, 0
  br i1 %101, label %102, label %112

102:                                              ; preds = %93
  %103 = load i32, i32* %8, align 4
  %104 = sext i32 %103 to i64
  %105 = getelementptr inbounds [1000 x [1000 x i32]], [1000 x [1000 x i32]]* %6, i64 0, i64 %104
  %106 = load i32, i32* %9, align 4
  %107 = sext i32 %106 to i64
  %108 = getelementptr inbounds [1000 x i32], [1000 x i32]* %105, i64 0, i64 %107
  %109 = load i32, i32* %108, align 4
  store i32 %109, i32* %11, align 4
  %110 = load i32, i32* %8, align 4
  store i32 %110, i32* %14, align 4
  %111 = load i32, i32* %9, align 4
  store i32 %111, i32* %15, align 4
  store i32 -1, i32* %8, align 4
  br label %116

112:                                              ; preds = %93
  br label %113

113:                                              ; preds = %112
  %114 = load i32, i32* %9, align 4
  %115 = add nsw i32 %114, -1
  store i32 %115, i32* %9, align 4
  br label %90

116:                                              ; preds = %102, %90
  br label %117

117:                                              ; preds = %116
  %118 = load i32, i32* %8, align 4
  %119 = add nsw i32 %118, -1
  store i32 %119, i32* %8, align 4
  br label %84

120:                                              ; preds = %84
  %121 = load i32, i32* %14, align 4
  %122 = load i32, i32* %12, align 4
  %123 = sub nsw i32 %121, %122
  %124 = sub nsw i32 %123, 1
  %125 = load i32, i32* %15, align 4
  %126 = load i32, i32* %13, align 4
  %127 = sub nsw i32 %125, %126
  %128 = sub nsw i32 %127, 1
  %129 = mul nsw i32 %124, %128
  store i32 %129, i32* %16, align 4
  %130 = load i32, i32* %16, align 4
  %131 = call i32 (i8*, ...) @printf(i8* getelementptr inbounds ([4 x i8], [4 x i8]* @.str.1, i64 0, i64 0), i32 %130)
  ret i32 0
}

declare dso_local i32 @__isoc99_scanf(i8*, ...) #1

declare dso_local i32 @printf(i8*, ...) #1


!llvm.module.flags = !{!0}
!llvm.ident = !{!1}

!0 = !{i32 1, !"wchar_size", i32 4}
!1 = !{!"clang version 10.0.0-4ubuntu1 "}
